Certificate:
    Data:
        Version: 3 (0x2)
        Serial Number: 7087 (0x1baf)
    Signature Algorithm: sha256WithRSAEncryption
        Issuer: C=US, ST=Washington, L=Seattle, O=getaCert - www.getacert.com
        Validity
            Not Before: Jul 11 22:18:53 2019 GMT
            Not After : Sep  9 22:18:53 2019 GMT
        Subject: C=CA, ST=BC, L=Burnaby, O=Fortinet, OU=GUI, CN=172.18.74.9/emailAddress=fazfmg-gui@fortinet.com
        Subject Public Key Info:
            Public Key Algorithm: rsaEncryption
                Public-Key: (2048 bit)
                Modulus:
                    00:f4:e2:b0:26:96:df:0e:e4:f9:39:e6:10:6a:3e:
                    51:9e:b3:9a:f4:8a:1c:dc:6d:1e:58:2f:75:95:74:
                    f0:48:df:e1:7f:1f:c0:a6:b1:38:4d:6a:a1:13:a3:
                    2f:9e:61:88:48:57:bf:af:13:8b:ca:52:bb:15:a0:
                    5a:01:64:04:86:83:19:05:cd:66:9c:12:54:bd:02:
                    13:67:3e:6d:97:c3:ed:10:41:a9:9c:85:41:6c:95:
                    ef:10:63:31:ae:d7:87:5e:2c:ba:0c:90:50:2b:96:
                    87:30:c6:66:80:8d:2c:a8:96:db:00:c0:9d:de:fe:
                    fb:0a:0e:5c:65:b2:f7:29:36:90:db:86:88:a8:e2:
                    81:97:43:5c:07:46:b8:a3:7e:f4:72:ed:18:f0:19:
                    d7:8e:b8:cd:ce:17:c0:ea:c2:18:82:e1:38:8e:88:
                    2d:6d:11:99:e4:a8:8d:e3:98:8b:fb:e1:66:b6:2a:
                    c4:e1:8f:08:40:8c:90:90:7b:ca:61:91:70:27:f5:
                    b3:bf:d6:2d:14:6b:f4:88:88:a8:33:a8:5e:ac:73:
                    c1:64:61:17:ec:cc:9f:3f:07:5b:f8:eb:30:05:b0:
                    16:79:fa:f1:4c:b0:7f:14:10:01:b6:d8:4b:3c:fa:
                    2b:40:dd:1f:de:eb:7d:8c:16:86:80:17:03:1b:5d:
                    03:69
                Exponent: 65537 (0x10001)
        X509v3 extensions:
            X509v3 Basic Constraints: 
                CA:FALSE
            Netscape Cert Type: 
                SSL Client, SSL Server, S/MIME, Object Signing
            X509v3 Key Usage: 
                Digital Signature, Key Encipherment
            X509v3 Extended Key Usage: 
                TLS Web Client Authentication, TLS Web Server Authentication
    Signature Algorithm: sha256WithRSAEncryption
         20:16:01:48:4f:50:ef:86:a6:73:4f:4e:ba:35:63:62:24:d6:
         26:76:2c:54:dd:3b:52:d5:95:c8:f1:83:d8:06:9a:03:b3:22:
         6b:fc:25:ba:c1:3f:e5:76:b2:ed:2c:25:c7:f4:58:0b:26:e3:
         04:4e:0a:2f:11:2b:f0:b7:e5:a4:c9:ac:15:12:65:21:1e:ab:
         cc:db:cd:89:99:d6:a9:fa:5f:40:03:e4:cf:31:0c:cb:19:ec:
         58:57:20:42:12:fd:b7:e6:20:26:e0:6e:0b:e2:1c:38:ac:30:
         74:f7:f5:b4:8d:0a:cb:9f:ad:32:52:e3:64:17:9b:98:d5:80:
         6a:65:53:c6:29:05:5d:89:4a:1f:bf:34:d5:d4:15:33:6f:e9:
         88:fc:2e:37:3a:55:4e:59:42:cd:49:e6:65:3f:9b:61:02:39:
         46:d8:4d:86:35:26:0c:91:87:5c:3e:7e:21:81:4c:e8:00:bf:
         9a:a2:9a:1e:d1:8e:ab:a9:e3:2e:ae:2e:cd:10:74:51:2e:37:
         c1:2d:f4:2a:74:70:f6:6c:9c:6c:2a:7e:3b:ac:ea:72:b4:f8:
         89:e9:25:8f:82:c8:a5:7c:c4:81:41:06:e2:73:77:fb:9d:44:
         82:28:ec:83:d9:ed:ed:f2:7d:c3:b9:59:34:86:11:80:50:6b:
         13:2c:09:77
-----BEGIN CERTIFICATE-----
MIIDrjCCApagAwIBAgICG68wDQYJKoZIhvcNAQELBQAwWjELMAkGA1UEBhMCVVMx
EzARBgNVBAgTCldhc2hpbmd0b24xEDAOBgNVBAcTB1NlYXR0bGUxJDAiBgNVBAoT
G2dldGFDZXJ0IC0gd3d3LmdldGFjZXJ0LmNvbTAeFw0xOTA3MTEyMjE4NTNaFw0x
OTA5MDkyMjE4NTNaMIGLMQswCQYDVQQGEwJDQTELMAkGA1UECBMCQkMxEDAOBgNV
BAcTB0J1cm5hYnkxETAPBgNVBAoTCEZvcnRpbmV0MQwwCgYDVQQLEwNHVUkxFDAS
BgNVBAMTCzE3Mi4xOC43NC45MSYwJAYJKoZIhvcNAQkBFhdmYXpmbWctZ3VpQGZv
cnRpbmV0LmNvbTCCASIwDQYJKoZIhvcNAQEBBQADggEPADCCAQoCggEBAPTisCaW
3w7k+TnmEGo+UZ6zmvSKHNxtHlgvdZV08Ejf4X8fwKaxOE1qoROjL55hiEhXv68T
i8pSuxWgWgFkBIaDGQXNZpwSVL0CE2c+bZfD7RBBqZyFQWyV7xBjMa7Xh14sugyQ
UCuWhzDGZoCNLKiW2wDAnd7++woOXGWy9yk2kNuGiKjigZdDXAdGuKN+9HLtGPAZ
1464zc4XwOrCGILhOI6ILW0RmeSojeOYi/vhZrYqxOGPCECMkJB7ymGRcCf1s7/W
LRRr9IiIqDOoXqxzwWRhF+zMnz8HW/jrMAWwFnn68UywfxQQAbbYSzz6K0DdH97r
fYwWhoAXAxtdA2kCAwEAAaNMMEowCQYDVR0TBAIwADARBglghkgBhvhCAQEEBAMC
BPAwCwYDVR0PBAQDAgWgMB0GA1UdJQQWMBQGCCsGAQUFBwMCBggrBgEFBQcDATAN
BgkqhkiG9w0BAQsFAAOCAQEAIBYBSE9Q74amc09OujVjYiTWJnYsVN07UtWVyPGD
2AaaA7Mia/wlusE/5Xay7Swlx/RYCybjBE4KLxEr8LflpMmsFRJlIR6rzNvNiZnW
qfpfQAPkzzEMyxnsWFcgQhL9t+YgJuBuC+IcOKwwdPf1tI0Ky5+tMlLjZBebmNWA
amVTxikFXYlKH7801dQVM2/piPwuNzpVTllCzUnmZT+bYQI5RthNhjUmDJGHXD5+
IYFM6AC/mqKaHtGOq6njLq4uzRB0US43wS30KnRw9mycbCp+O6zqcrT4ieklj4LI
pXzEgUEG4nN3+51Egijsg9nt7fJ9w7lZNIYRgFBrEywJdw==
-----END CERTIFICATE-----
